target datalayout = "e-m:e-p270:32:32-p271:32:32-p272:64:64-i64:64-i128:128-f80:128-n8:16:32:64-S128"
target triple = "x86_64-pc-linux-gnu"

%struct.Aig_Obj_t_ = type { %union.anon, ptr, ptr, i64, i32, i32, %union.anon.0 }
%union.anon = type { ptr }
%union.anon.0 = type { ptr }
%struct.Aig_Man_t_ = type { ptr, ptr, ptr, ptr, ptr, ptr, ptr, %struct.Aig_Obj_t_, i32, i32, i32, i32, i32, i32, [7 x i32], i32, ptr, i32, ptr, i32, ptr, i32, i32, i32, ptr, i32, i32, i32, i32, i32, ptr, ptr, i32, ptr, ptr, i32, ptr, ptr, i32, i32, i32, ptr, ptr, ptr, ptr, ptr, ptr, ptr, ptr, ptr, ptr, ptr, ptr, ptr, ptr, i32, ptr, ptr, ptr, ptr, i32, i64, i64, i64, ptr, ptr }
%struct.Abc_Cex_t_ = type { i32, i32, i32, i32, i32, [0 x i32] }
%struct.Vec_Int_t_ = type { i32, i32, ptr }
%struct.Saig_ManCba_t_ = type { ptr, ptr, i32, i32, ptr, ptr, ptr, ptr }
%struct.timespec = type { i64, i64 }

@.str.1 = private unnamed_addr constant [71 x i8] c"Frame PIs = %4d (essential = %4d)   AIG PIs = %4d (essential = %4d)   \00", align 1
@.str.2 = private unnamed_addr constant [5 x i8] c"%s =\00", align 1
@.str.3 = private unnamed_addr constant [5 x i8] c"Time\00", align 1
@.str.4 = private unnamed_addr constant [11 x i8] c"%9.2f sec\0A\00", align 1
@.str.7 = private unnamed_addr constant [86 x i8] c"Saig_ManCbaFilterInputs(): The PI count of AIG (%d) does not match that of cex (%d).\0A\00", align 1

; Function Attrs: inlinehint nounwind uwtable
define internal void @Vec_IntFree(ptr noundef %0) #2 {
  %2 = alloca ptr, align 8
  store ptr %0, ptr %2, align 8, !tbaa !10
  %3 = load ptr, ptr %2, align 8, !tbaa !10
  %4 = getelementptr inbounds nuw %struct.Vec_Int_t_, ptr %3, i32 0, i32 2
  %5 = load ptr, ptr %4, align 8, !tbaa !47
  %6 = icmp ne ptr %5, null
  br i1 %6, label %7, label %13

7:                                                ; preds = %1
  %8 = load ptr, ptr %2, align 8, !tbaa !10
  %9 = getelementptr inbounds nuw %struct.Vec_Int_t_, ptr %8, i32 0, i32 2
  %10 = load ptr, ptr %9, align 8, !tbaa !47
  call void @free(ptr noundef %10) #11
  %11 = load ptr, ptr %2, align 8, !tbaa !10
  %12 = getelementptr inbounds nuw %struct.Vec_Int_t_, ptr %11, i32 0, i32 2
  store ptr null, ptr %12, align 8, !tbaa !47
  br label %14

13:                                               ; preds = %1
  br label %14

14:                                               ; preds = %13, %7
  %15 = load ptr, ptr %2, align 8, !tbaa !10
  %16 = icmp ne ptr %15, null
  br i1 %16, label %17, label %19

17:                                               ; preds = %14
  %18 = load ptr, ptr %2, align 8, !tbaa !10
  call void @free(ptr noundef %18) #11
  store ptr null, ptr %2, align 8, !tbaa !10
  br label %20

19:                                               ; preds = %14
  br label %20

20:                                               ; preds = %19, %17
  ret void
}

; Function Attrs: inlinehint nounwind uwtable
define internal i32 @Vec_IntSize(ptr noundef %0) #2 {
  %2 = alloca ptr, align 8
  store ptr %0, ptr %2, align 8, !tbaa !10
  %3 = load ptr, ptr %2, align 8, !tbaa !10
  %4 = getelementptr inbounds nuw %struct.Vec_Int_t_, ptr %3, i32 0, i32 1
  %5 = load i32, ptr %4, align 4, !tbaa !44
  ret i32 %5
}

; Function Attrs: nounwind uwtable
define ptr @Saig_ManCbaStart(ptr noundef %0, ptr noundef %1, i32 noundef %2, i32 noundef %3) #0 {
  %5 = alloca ptr, align 8
  %6 = alloca ptr, align 8
  %7 = alloca i32, align 4
  %8 = alloca i32, align 4
  %9 = alloca ptr, align 8
  store ptr %0, ptr %5, align 8, !tbaa !3
  store ptr %1, ptr %6, align 8, !tbaa !8
  store i32 %2, ptr %7, align 4, !tbaa !12
  store i32 %3, ptr %8, align 4, !tbaa !12
  call void @llvm.lifetime.start.p0(i64 8, ptr %9) #11
  %10 = call noalias ptr @calloc(i64 noundef 1, i64 noundef 56) #14
  store ptr %10, ptr %9, align 8, !tbaa !72
  %11 = load ptr, ptr %5, align 8, !tbaa !3
  %12 = load ptr, ptr %9, align 8, !tbaa !72
  %13 = getelementptr inbounds nuw %struct.Saig_ManCba_t_, ptr %12, i32 0, i32 0
  store ptr %11, ptr %13, align 8, !tbaa !74
  %14 = load ptr, ptr %6, align 8, !tbaa !8
  %15 = load ptr, ptr %9, align 8, !tbaa !72
  %16 = getelementptr inbounds nuw %struct.Saig_ManCba_t_, ptr %15, i32 0, i32 1
  store ptr %14, ptr %16, align 8, !tbaa !79
  %17 = load i32, ptr %7, align 4, !tbaa !12
  %18 = load ptr, ptr %9, align 8, !tbaa !72
  %19 = getelementptr inbounds nuw %struct.Saig_ManCba_t_, ptr %18, i32 0, i32 2
  store i32 %17, ptr %19, align 8, !tbaa !77
  %20 = load i32, ptr %8, align 4, !tbaa !12
  %21 = load ptr, ptr %9, align 8, !tbaa !72
  %22 = getelementptr inbounds nuw %struct.Saig_ManCba_t_, ptr %21, i32 0, i32 3
  store i32 %20, ptr %22, align 4, !tbaa !104
  %23 = load ptr, ptr %9, align 8, !tbaa !72
  call void @llvm.lifetime.end.p0(i64 8, ptr %9) #11
  ret ptr %23
}

; Function Attrs: inlinehint nounwind uwtable
define internal i64 @Abc_Clock() #2 {
  %1 = alloca i64, align 8
  %2 = alloca %struct.timespec, align 8
  %3 = alloca i32, align 4
  %4 = alloca i64, align 8
  call void @llvm.lifetime.start.p0(i64 16, ptr %2) #11
  %5 = call i32 @clock_gettime(i32 noundef 1, ptr noundef %2) #11
  %6 = icmp slt i32 %5, 0
  br i1 %6, label %7, label %8

7:                                                ; preds = %0
  store i64 -1, ptr %1, align 8
  store i32 1, ptr %3, align 4
  br label %19

8:                                                ; preds = %0
  call void @llvm.lifetime.start.p0(i64 8, ptr %4) #11
  %9 = getelementptr inbounds nuw %struct.timespec, ptr %2, i32 0, i32 0
  %10 = load i64, ptr %9, align 8, !tbaa !126
  %11 = mul nsw i64 %10, 1000000
  store i64 %11, ptr %4, align 8, !tbaa !116
  %12 = getelementptr inbounds nuw %struct.timespec, ptr %2, i32 0, i32 1
  %13 = load i64, ptr %12, align 8, !tbaa !128
  %14 = mul nsw i64 %13, 1000000
  %15 = sdiv i64 %14, 1000000000
  %16 = load i64, ptr %4, align 8, !tbaa !116
  %17 = add nsw i64 %16, %15
  store i64 %17, ptr %4, align 8, !tbaa !116
  %18 = load i64, ptr %4, align 8, !tbaa !116
  store i64 %18, ptr %1, align 8
  store i32 1, ptr %3, align 4
  call void @llvm.lifetime.end.p0(i64 8, ptr %4) #11
  br label %19

19:                                               ; preds = %8, %7
  call void @llvm.lifetime.end.p0(i64 16, ptr %2) #11
  %20 = load i64, ptr %1, align 8
  ret i64 %20
}

; Function Attrs: inlinehint nounwind uwtable
define internal i32 @Aig_ManCiNum(ptr noundef %0) #2 {
  %2 = alloca ptr, align 8
  store ptr %0, ptr %2, align 8, !tbaa !3
  %3 = load ptr, ptr %2, align 8, !tbaa !3
  %4 = getelementptr inbounds nuw %struct.Aig_Man_t_, ptr %3, i32 0, i32 14
  %5 = getelementptr inbounds [7 x i32], ptr %4, i64 0, i64 2
  %6 = load i32, ptr %5, align 8, !tbaa !12
  ret i32 %6
}

; Function Attrs: inlinehint nounwind uwtable
define internal i32 @Saig_ManPiNum(ptr noundef %0) #2 {
  %2 = alloca ptr, align 8
  store ptr %0, ptr %2, align 8, !tbaa !3
  %3 = load ptr, ptr %2, align 8, !tbaa !3
  %4 = getelementptr inbounds nuw %struct.Aig_Man_t_, ptr %3, i32 0, i32 9
  %5 = load i32, ptr %4, align 4, !tbaa !54
  ret i32 %5
}

; Function Attrs: nounwind uwtable
define ptr @Saig_ManCbaFilterInputs(ptr noundef %0, i32 noundef %1, ptr noundef %2, i32 noundef %3) #0 {
  %5 = alloca ptr, align 8
  %6 = alloca ptr, align 8
  %7 = alloca i32, align 4
  %8 = alloca ptr, align 8
  %9 = alloca i32, align 4
  %10 = alloca ptr, align 8
  %11 = alloca ptr, align 8
  %12 = alloca ptr, align 8
  %13 = alloca i64, align 8
  %14 = alloca i32, align 4
  store ptr %0, ptr %6, align 8, !tbaa !3
  store i32 %1, ptr %7, align 4, !tbaa !12
  store ptr %2, ptr %8, align 8, !tbaa !8
  store i32 %3, ptr %9, align 4, !tbaa !12
  call void @llvm.lifetime.start.p0(i64 8, ptr %10) #11
  call void @llvm.lifetime.start.p0(i64 8, ptr %11) #11
  call void @llvm.lifetime.start.p0(i64 8, ptr %12) #11
  call void @llvm.lifetime.start.p0(i64 8, ptr %13) #11
  %15 = load ptr, ptr %6, align 8, !tbaa !3
  %16 = call i32 @Saig_ManPiNum(ptr noundef %15)
  %17 = load ptr, ptr %8, align 8, !tbaa !8
  %18 = getelementptr inbounds nuw %struct.Abc_Cex_t_, ptr %17, i32 0, i32 3
  %19 = load i32, ptr %18, align 4, !tbaa !32
  %20 = icmp ne i32 %16, %19
  br i1 %20, label %21, label %28

21:                                               ; preds = %4
  %22 = load ptr, ptr %6, align 8, !tbaa !3
  %23 = call i32 @Aig_ManCiNum(ptr noundef %22)
  %24 = load ptr, ptr %8, align 8, !tbaa !8
  %25 = getelementptr inbounds nuw %struct.Abc_Cex_t_, ptr %24, i32 0, i32 3
  %26 = load i32, ptr %25, align 4, !tbaa !32
  %27 = call i32 (ptr, ...) @printf(ptr noundef @.str.7, i32 noundef %23, i32 noundef %26)
  store ptr null, ptr %5, align 8
  store i32 1, ptr %14, align 4
  br label %80

28:                                               ; preds = %4
  %29 = call i64 @Abc_Clock()
  store i64 %29, ptr %13, align 8, !tbaa !116
  %30 = load ptr, ptr %6, align 8, !tbaa !3
  %31 = load ptr, ptr %8, align 8, !tbaa !8
  %32 = load i32, ptr %7, align 4, !tbaa !12
  %33 = load i32, ptr %9, align 4, !tbaa !12
  %34 = call ptr @Saig_ManCbaStart(ptr noundef %30, ptr noundef %31, i32 noundef %32, i32 noundef %33)
  store ptr %34, ptr %10, align 8, !tbaa !72
  %35 = load ptr, ptr %6, align 8, !tbaa !3
  %36 = load ptr, ptr %8, align 8, !tbaa !8
  %37 = load i32, ptr %7, align 4, !tbaa !12
  %38 = load ptr, ptr %10, align 8, !tbaa !72
  %39 = getelementptr inbounds nuw %struct.Saig_ManCba_t_, ptr %38, i32 0, i32 5
  %40 = load ptr, ptr %10, align 8, !tbaa !72
  %41 = getelementptr inbounds nuw %struct.Saig_ManCba_t_, ptr %40, i32 0, i32 6
  %42 = call ptr @Saig_ManCbaUnrollWithCex(ptr noundef %35, ptr noundef %36, i32 noundef %37, ptr noundef %39, ptr noundef %41)
  %43 = load ptr, ptr %10, align 8, !tbaa !72
  %44 = getelementptr inbounds nuw %struct.Saig_ManCba_t_, ptr %43, i32 0, i32 4
  store ptr %42, ptr %44, align 8, !tbaa !85
  %45 = load ptr, ptr %10, align 8, !tbaa !72
  %46 = call ptr @Saig_ManCbaFindReason(ptr noundef %45)
  store ptr %46, ptr %12, align 8, !tbaa !10
  %47 = load ptr, ptr %10, align 8, !tbaa !72
  %48 = load ptr, ptr %12, align 8, !tbaa !10
  %49 = call ptr @Saig_ManCbaReason2Inputs(ptr noundef %47, ptr noundef %48)
  store ptr %49, ptr %11, align 8, !tbaa !10
  %50 = load i32, ptr %9, align 4, !tbaa !12
  %51 = icmp ne i32 %50, 0
  br i1 %51, label %52, label %76

52:                                               ; preds = %28
  %53 = load ptr, ptr %10, align 8, !tbaa !72
  %54 = getelementptr inbounds nuw %struct.Saig_ManCba_t_, ptr %53, i32 0, i32 4
  %55 = load ptr, ptr %54, align 8, !tbaa !85
  %56 = call i32 @Aig_ManCiNum(ptr noundef %55)
  %57 = load ptr, ptr %12, align 8, !tbaa !10
  %58 = call i32 @Vec_IntSize(ptr noundef %57)
  %59 = load ptr, ptr %10, align 8, !tbaa !72
  %60 = getelementptr inbounds nuw %struct.Saig_ManCba_t_, ptr %59, i32 0, i32 0
  %61 = load ptr, ptr %60, align 8, !tbaa !74
  %62 = call i32 @Saig_ManPiNum(ptr noundef %61)
  %63 = load ptr, ptr %10, align 8, !tbaa !72
  %64 = getelementptr inbounds nuw %struct.Saig_ManCba_t_, ptr %63, i32 0, i32 2
  %65 = load i32, ptr %64, align 8, !tbaa !77
  %66 = sub nsw i32 %62, %65
  %67 = load ptr, ptr %11, align 8, !tbaa !10
  %68 = call i32 @Vec_IntSize(ptr noundef %67)
  %69 = call i32 (ptr, ...) @printf(ptr noundef @.str.1, i32 noundef %56, i32 noundef %58, i32 noundef %66, i32 noundef %68)
  call void (i32, ptr, ...) @Abc_Print(i32 noundef 1, ptr noundef @.str.2, ptr noundef @.str.3)
  %70 = call i64 @Abc_Clock()
  %71 = load i64, ptr %13, align 8, !tbaa !116
  %72 = sub nsw i64 %70, %71
  %73 = sitofp i64 %72 to double
  %74 = fmul double 1.000000e+00, %73
  %75 = fdiv double %74, 1.000000e+06
  call void (i32, ptr, ...) @Abc_Print(i32 noundef 1, ptr noundef @.str.4, double noundef %75)
  br label %76

76:                                               ; preds = %52, %28
  %77 = load ptr, ptr %12, align 8, !tbaa !10
  call void @Vec_IntFree(ptr noundef %77)
  %78 = load ptr, ptr %10, align 8, !tbaa !72
  call void @Saig_ManCbaStop(ptr noundef %78)
  %79 = load ptr, ptr %11, align 8, !tbaa !10
  store ptr %79, ptr %5, align 8
  store i32 1, ptr %14, align 4
  br label %80

80:                                               ; preds = %76, %21
  call void @llvm.lifetime.end.p0(i64 8, ptr %13) #11
  call void @llvm.lifetime.end.p0(i64 8, ptr %12) #11
  call void @llvm.lifetime.end.p0(i64 8, ptr %11) #11
  call void @llvm.lifetime.end.p0(i64 8, ptr %10) #11
  %81 = load ptr, ptr %5, align 8
  ret ptr %81
}