; Function Attrs: nounwind uwtable
define noalias noundef ptr @Saig_ManCbaFilterInputs(ptr noundef %0, i32 noundef %1, ptr noundef %2, i32 noundef %3) local_unnamed_addr #0 {
  %5 = alloca %struct.timespec, align 8
  %6 = alloca %struct.timespec, align 8
  %7 = getelementptr i8, ptr %0, i64 108
  %.val30 = load i32, ptr %7, align 4, !tbaa !32
  %8 = getelementptr inbounds nuw i8, ptr %2, i64 12
  %9 = load i32, ptr %8, align 4, !tbaa !38
  %.not = icmp eq i32 %.val30, %9
  br i1 %.not, label %13, label %10

10:                                               ; preds = %4
  %11 = getelementptr i8, ptr %0, i64 136
  %.val32 = load i32, ptr %11, align 8, !tbaa !12
  %12 = tail call i32 (ptr, ...) @printf(ptr noundef nonnull dereferenceable(1) @.str.7, i32 noundef %.val32, i32 noundef %9)
  br label %55

13:                                               ; preds = %4
  call void @llvm.lifetime.start.p0(i64 16, ptr nonnull %6) #20
  %14 = call i32 @clock_gettime(i32 noundef 1, ptr noundef nonnull %6) #20
  %15 = icmp slt i32 %14, 0
  br i1 %15, label %Abc_Clock.exit, label %16

16:                                               ; preds = %13
  %17 = load i64, ptr %6, align 8, !tbaa !109
  %.neg35 = mul i64 %17, -1000000
  %18 = getelementptr inbounds nuw i8, ptr %6, i64 8
  %19 = load i64, ptr %18, align 8, !tbaa !111
  %.neg = sdiv i64 %19, -1000
  %.neg36 = add i64 %.neg, %.neg35
  br label %Abc_Clock.exit

Abc_Clock.exit:                                   ; preds = %13, %16
  %.0.i.neg = phi i64 [ %.neg36, %16 ], [ 1, %13 ]
  call void @llvm.lifetime.end.p0(i64 16, ptr nonnull %6) #20
  %20 = call noalias dereferenceable_or_null(56) ptr @calloc(i64 noundef 1, i64 noundef 56) #22
  store ptr %0, ptr %20, align 8, !tbaa !64
  %21 = getelementptr inbounds nuw i8, ptr %20, i64 8
  store ptr %2, ptr %21, align 8, !tbaa !69
  %22 = getelementptr inbounds nuw i8, ptr %20, i64 16
  store i32 %1, ptr %22, align 8, !tbaa !67
  %23 = getelementptr inbounds nuw i8, ptr %20, i64 20
  store i32 %3, ptr %23, align 4, !tbaa !95
  %24 = getelementptr inbounds nuw i8, ptr %20, i64 32
  %25 = getelementptr inbounds nuw i8, ptr %20, i64 40
  %26 = call ptr @Saig_ManCbaUnrollWithCex(ptr noundef nonnull %0, ptr noundef nonnull %2, i32 noundef %1, ptr noundef nonnull %24, ptr noundef nonnull %25)
  %27 = getelementptr inbounds nuw i8, ptr %20, i64 24
  store ptr %26, ptr %27, align 8, !tbaa !75
  %28 = call ptr @Saig_ManCbaFindReason(ptr noundef nonnull %20)
  %29 = call ptr @Saig_ManCbaReason2Inputs(ptr noundef nonnull %20, ptr noundef %28)
  %.not27 = icmp eq i32 %3, 0
  br i1 %.not27, label %51, label %30

30:                                               ; preds = %Abc_Clock.exit
  %31 = getelementptr i8, ptr %26, i64 136
  %.val31 = load i32, ptr %31, align 8, !tbaa !12
  %32 = getelementptr i8, ptr %28, i64 4
  %.val28 = load i32, ptr %32, align 4, !tbaa !3
  %33 = load ptr, ptr %20, align 8, !tbaa !64
  %34 = getelementptr i8, ptr %33, i64 108
  %.val29 = load i32, ptr %34, align 4, !tbaa !32
  %35 = load i32, ptr %22, align 8, !tbaa !67
  %36 = sub nsw i32 %.val29, %35
  %37 = getelementptr i8, ptr %29, i64 4
  %.val = load i32, ptr %37, align 4, !tbaa !3
  %38 = call i32 (ptr, ...) @printf(ptr noundef nonnull dereferenceable(1) @.str.1, i32 noundef %.val31, i32 noundef %.val28, i32 noundef %36, i32 noundef %.val)
  call void (i32, ptr, ...) @Abc_Print(i32 poison, ptr noundef nonnull @.str.2, ptr noundef nonnull @.str.3)
  call void @llvm.lifetime.start.p0(i64 16, ptr nonnull %5) #20
  %39 = call i32 @clock_gettime(i32 noundef 1, ptr noundef nonnull %5) #20
  %40 = icmp slt i32 %39, 0
  br i1 %40, label %Abc_Clock.exit34, label %41

41:                                               ; preds = %30
  %42 = load i64, ptr %5, align 8, !tbaa !109
  %43 = mul nsw i64 %42, 1000000
  %44 = getelementptr inbounds nuw i8, ptr %5, i64 8
  %45 = load i64, ptr %44, align 8, !tbaa !111
  %46 = sdiv i64 %45, 1000
  %47 = add nsw i64 %46, %43
  br label %Abc_Clock.exit34

Abc_Clock.exit34:                                 ; preds = %30, %41
  %.0.i33 = phi i64 [ %47, %41 ], [ -1, %30 ]
  call void @llvm.lifetime.end.p0(i64 16, ptr nonnull %5) #20
  %48 = add i64 %.0.i33, %.0.i.neg
  %49 = sitofp i64 %48 to double
  %50 = fdiv double %49, 1.000000e+06
  call void (i32, ptr, ...) @Abc_Print(i32 poison, ptr noundef nonnull @.str.4, double noundef %50)
  br label %51

51:                                               ; preds = %Abc_Clock.exit34, %Abc_Clock.exit
  %52 = getelementptr inbounds nuw i8, ptr %28, i64 8
  %53 = load ptr, ptr %52, align 8, !tbaa !11
  %.not.i = icmp eq ptr %53, null
  br i1 %.not.i, label %Vec_IntFree.exit, label %54

54:                                               ; preds = %51
  call void @free(ptr noundef nonnull %53) #20
  br label %Vec_IntFree.exit

Vec_IntFree.exit:                                 ; preds = %51, %54
  call void @free(ptr noundef nonnull %28) #20
  call void @Saig_ManCbaStop(ptr noundef nonnull %20)
  br label %55

55:                                               ; preds = %Vec_IntFree.exit, %10
  %.0 = phi ptr [ null, %10 ], [ %29, %Vec_IntFree.exit ]
  ret ptr %.0
}